; ModuleID = '9/493.c'
source_filename = "9/493.c"
target datalayout = "e-m:e-p270:32:32-p271:32:32-p272:64:64-i64:64-f80:128-n8:16:32:64-S128"
target triple = "x86_64-pc-linux-gnu"

@.str = private unnamed_addr constant [3 x i8] c"%d\00", align 1
@.str.1 = private unnamed_addr constant [6 x i8] c"%s %d\00", align 1
@.str.2 = private unnamed_addr constant [4 x i8] c"%s\0A\00", align 1

; Function Attrs: noinline nounwind uwtable
define dso_local i32 @main() #0 {
  %1 = alloca i32, align 4
  %2 = alloca [100 x i32], align 16
  %3 = alloca i32, align 4
  %4 = alloca i32, align 4
  %5 = alloca i32, align 4
  %6 = alloca [100 x [100 x i8]], align 16
  %7 = alloca i32, align 4
  %8 = alloca [10 x i8], align 1
  store i32 0, i32* %1, align 4
  %9 = call i32 (i8*, ...) @__isoc99_scanf(i8* getelementptr inbounds ([3 x i8], [3 x i8]* @.str, i64 0, i64 0), i32* %3)
  store i32 0, i32* %4, align 4
  br label %10

10:                                               ; preds = %23, %0
  %11 = load i32, i32* %4, align 4
  %12 = load i32, i32* %3, align 4
  %13 = icmp slt i32 %11, %12
  br i1 %13, label %14, label %26

14:                                               ; preds = %10
  %15 = load i32, i32* %4, align 4
  %16 = sext i32 %15 to i64
  %17 = getelementptr inbounds [100 x [100 x i8]], [100 x [100 x i8]]* %6, i64 0, i64 %16
  %18 = getelementptr inbounds [100 x i8], [100 x i8]* %17, i64 0, i64 0
  %19 = load i32, i32* %4, align 4
  %20 = sext i32 %19 to i64
  %21 = getelementptr inbounds [100 x i32], [100 x i32]* %2, i64 0, i64 %20
  %22 = call i32 (i8*, ...) @__isoc99_scanf(i8* getelementptr inbounds ([6 x i8], [6 x i8]* @.str.1, i64 0, i64 0), i8* %18, i32* %21)
  br label %23

23:                                               ; preds = %14
  %24 = load i32, i32* %4, align 4
  %25 = add nsw i32 %24, 1
  store i32 %25, i32* %4, align 4
  br label %10

26:                                               ; preds = %10
  store i32 1, i32* %5, align 4
  br label %27

27:                                               ; preds = %121, %26
  %28 = load i32, i32* %5, align 4
  %29 = load i32, i32* %3, align 4
  %30 = icmp sle i32 %28, %29
  br i1 %30, label %31, label %124

31:                                               ; preds = %27
  store i32 0, i32* %4, align 4
  br label %32

32:                                               ; preds = %117, %31
  %33 = load i32, i32* %4, align 4
  %34 = load i32, i32* %3, align 4
  %35 = load i32, i32* %5, align 4
  %36 = sub nsw i32 %34, %35
  %37 = icmp slt i32 %33, %36
  br i1 %37, label %38, label %120

38:                                               ; preds = %32
  %39 = load i32, i32* %4, align 4
  %40 = sext i32 %39 to i64
  %41 = getelementptr inbounds [100 x i32], [100 x i32]* %2, i64 0, i64 %40
  %42 = load i32, i32* %41, align 4
  %43 = icmp slt i32 %42, 60
  br i1 %43, label %44, label %51

44:                                               ; preds = %38
  %45 = load i32, i32* %4, align 4
  %46 = add nsw i32 %45, 1
  %47 = sext i32 %46 to i64
  %48 = getelementptr inbounds [100 x i32], [100 x i32]* %2, i64 0, i64 %47
  %49 = load i32, i32* %48, align 4
  %50 = icmp sge i32 %49, 60
  br i1 %50, label %75, label %51

51:                                               ; preds = %44, %38
  %52 = load i32, i32* %4, align 4
  %53 = sext i32 %52 to i64
  %54 = getelementptr inbounds [100 x i32], [100 x i32]* %2, i64 0, i64 %53
  %55 = load i32, i32* %54, align 4
  %56 = icmp sge i32 %55, 60
  br i1 %56, label %57, label %116

57:                                               ; preds = %51
  %58 = load i32, i32* %4, align 4
  %59 = add nsw i32 %58, 1
  %60 = sext i32 %59 to i64
  %61 = getelementptr inbounds [100 x i32], [100 x i32]* %2, i64 0, i64 %60
  %62 = load i32, i32* %61, align 4
  %63 = icmp sge i32 %62, 60
  br i1 %63, label %64, label %116

64:                                               ; preds = %57
  %65 = load i32, i32* %4, align 4
  %66 = sext i32 %65 to i64
  %67 = getelementptr inbounds [100 x i32], [100 x i32]* %2, i64 0, i64 %66
  %68 = load i32, i32* %67, align 4
  %69 = load i32, i32* %4, align 4
  %70 = add nsw i32 %69, 1
  %71 = sext i32 %70 to i64
  %72 = getelementptr inbounds [100 x i32], [100 x i32]* %2, i64 0, i64 %71
  %73 = load i32, i32* %72, align 4
  %74 = icmp slt i32 %68, %73
  br i1 %74, label %75, label %116

75:                                               ; preds = %64, %44
  %76 = load i32, i32* %4, align 4
  %77 = add nsw i32 %76, 1
  %78 = sext i32 %77 to i64
  %79 = getelementptr inbounds [100 x i32], [100 x i32]* %2, i64 0, i64 %78
  %80 = load i32, i32* %79, align 4
  store i32 %80, i32* %7, align 4
  %81 = getelementptr inbounds [10 x i8], [10 x i8]* %8, i64 0, i64 0
  %82 = load i32, i32* %4, align 4
  %83 = add nsw i32 %82, 1
  %84 = sext i32 %83 to i64
  %85 = getelementptr inbounds [100 x [100 x i8]], [100 x [100 x i8]]* %6, i64 0, i64 %84
  %86 = getelementptr inbounds [100 x i8], [100 x i8]* %85, i64 0, i64 0
  %87 = call i8* @strcpy(i8* %81, i8* %86) #3
  %88 = load i32, i32* %4, align 4
  %89 = sext i32 %88 to i64
  %90 = getelementptr inbounds [100 x i32], [100 x i32]* %2, i64 0, i64 %89
  %91 = load i32, i32* %90, align 4
  %92 = load i32, i32* %4, align 4
  %93 = add nsw i32 %92, 1
  %94 = sext i32 %93 to i64
  %95 = getelementptr inbounds [100 x i32], [100 x i32]* %2, i64 0, i64 %94
  store i32 %91, i32* %95, align 4
  %96 = load i32, i32* %4, align 4
  %97 = add nsw i32 %96, 1
  %98 = sext i32 %97 to i64
  %99 = getelementptr inbounds [100 x [100 x i8]], [100 x [100 x i8]]* %6, i64 0, i64 %98
  %100 = getelementptr inbounds [100 x i8], [100 x i8]* %99, i64 0, i64 0
  %101 = load i32, i32* %4, align 4
  %102 = sext i32 %101 to i64
  %103 = getelementptr inbounds [100 x [100 x i8]], [100 x [100 x i8]]* %6, i64 0, i64 %102
  %104 = getelementptr inbounds [100 x i8], [100 x i8]* %103, i64 0, i64 0
  %105 = call i8* @strcpy(i8* %100, i8* %104) #3
  %106 = load i32, i32* %7, align 4
  %107 = load i32, i32* %4, align 4
  %108 = sext i32 %107 to i64
  %109 = getelementptr inbounds [100 x i32], [100 x i32]* %2, i64 0, i64 %108
  store i32 %106, i32* %109, align 4
  %110 = load i32, i32* %4, align 4
  %111 = sext i32 %110 to i64
  %112 = getelementptr inbounds [100 x [100 x i8]], [100 x [100 x i8]]* %6, i64 0, i64 %111
  %113 = getelementptr inbounds [100 x i8], [100 x i8]* %112, i64 0, i64 0
  %114 = getelementptr inbounds [10 x i8], [10 x i8]* %8, i64 0, i64 0
  %115 = call i8* @strcpy(i8* %113, i8* %114) #3
  br label %116

116:                                              ; preds = %75, %64, %57, %51
  br label %117

117:                                              ; preds = %116
  %118 = load i32, i32* %4, align 4
  %119 = add nsw i32 %118, 1
  store i32 %119, i32* %4, align 4
  br label %32

120:                                              ; preds = %32
  br label %121

121:                                              ; preds = %120
  %122 = load i32, i32* %5, align 4
  %123 = add nsw i32 %122, 1
  store i32 %123, i32* %5, align 4
  br label %27

124:                                              ; preds = %27
  store i32 0, i32* %4, align 4
  br label %125

125:                                              ; preds = %135, %124
  %126 = load i32, i32* %4, align 4
  %127 = load i32, i32* %3, align 4
  %128 = icmp slt i32 %126, %127
  br i1 %128, label %129, label %138

129:                                              ; preds = %125
  %130 = load i32, i32* %4, align 4
  %131 = sext i32 %130 to i64
  %132 = getelementptr inbounds [100 x [100 x i8]], [100 x [100 x i8]]* %6, i64 0, i64 %131
  %133 = getelementptr inbounds [100 x i8], [100 x i8]* %132, i64 0, i64 0
  %134 = call i32 (i8*, ...) @printf(i8* getelementptr inbounds ([4 x i8], [4 x i8]* @.str.2, i64 0, i64 0), i8* %133)
  br label %135

135:                                              ; preds = %129
  %136 = load i32, i32* %4, align 4
  %137 = add nsw i32 %136, 1
  store i32 %137, i32* %4, align 4
  br label %125

138:                                              ; preds = %125
  ret i32 0
}

declare dso_local i32 @__isoc99_scanf(i8*, ...) #1

; Function Attrs: nounwind
declare dso_local i8* @strcpy(i8*, i8*) #2

declare dso_local i32 @printf(i8*, ...) #1


!llvm.module.flags = !{!0}
!llvm.ident = !{!1}

!0 = !{i32 1, !"wchar_size", i32 4}
!1 = !{!"clang version 10.0.0-4ubuntu1 "}
