; ModuleID = 'source-C-CXX/8/493.c'
source_filename = "source-C-CXX/8/493.c"
target datalayout = "e-m:e-p270:32:32-p271:32:32-p272:64:64-i64:64-f80:128-n8:16:32:64-S128"
target triple = "x86_64-pc-linux-gnu"

@.str = private unnamed_addr constant [3 x i8] c"%d\00", align 1
@.str.1 = private unnamed_addr constant [6 x i8] c"%s %d\00", align 1

; Function Attrs: nofree nounwind sspstrong uwtable
define dso_local i32 @main() local_unnamed_addr #0 {
  %1 = alloca [100 x i32], align 16
  %2 = alloca i32, align 4
  %3 = alloca [100 x [100 x i8]], align 16
  %4 = alloca [10 x i8], align 1
  %5 = bitcast [100 x i32]* %1 to i8*
  call void @llvm.lifetime.start.p0i8(i64 400, i8* nonnull %5) #5
  %6 = bitcast i32* %2 to i8*
  call void @llvm.lifetime.start.p0i8(i64 4, i8* nonnull %6) #5
  %7 = getelementptr inbounds [100 x [100 x i8]], [100 x [100 x i8]]* %3, i64 0, i64 0, i64 0
  call void @llvm.lifetime.start.p0i8(i64 10000, i8* nonnull %7) #5
  %8 = call i32 (i8*, ...) @__isoc99_scanf(i8* getelementptr inbounds ([3 x i8], [3 x i8]* @.str, i64 0, i64 0), i32* nonnull %2)
  %9 = load i32, i32* %2, align 4, !tbaa !5
  %10 = icmp sgt i32 %9, 0
  br i1 %10, label %13, label %11

11:                                               ; preds = %0
  %12 = getelementptr inbounds [10 x i8], [10 x i8]* %4, i64 0, i64 0
  call void @llvm.lifetime.start.p0i8(i64 10, i8* nonnull %12) #5
  br label %67

13:                                               ; preds = %0, %13
  %14 = phi i64 [ %18, %13 ], [ 0, %0 ]
  %15 = getelementptr inbounds [100 x [100 x i8]], [100 x [100 x i8]]* %3, i64 0, i64 %14, i64 0
  %16 = getelementptr inbounds [100 x i32], [100 x i32]* %1, i64 0, i64 %14
  %17 = call i32 (i8*, ...) @__isoc99_scanf(i8* getelementptr inbounds ([6 x i8], [6 x i8]* @.str.1, i64 0, i64 0), i8* nonnull %15, i32* nonnull %16)
  %18 = add nuw nsw i64 %14, 1
  %19 = load i32, i32* %2, align 4, !tbaa !5
  %20 = sext i32 %19 to i64
  %21 = icmp slt i64 %18, %20
  br i1 %21, label %13, label %22, !llvm.loop !9

22:                                               ; preds = %13
  %23 = getelementptr inbounds [10 x i8], [10 x i8]* %4, i64 0, i64 0
  call void @llvm.lifetime.start.p0i8(i64 10, i8* nonnull %23) #5
  %24 = icmp slt i32 %19, 1
  br i1 %24, label %67, label %25

25:                                               ; preds = %22, %56
  %26 = phi i32 [ %28, %56 ], [ %19, %22 ]
  %27 = phi i32 [ %57, %56 ], [ 1, %22 ]
  %28 = add i32 %26, -1
  %29 = icmp sgt i32 %19, %27
  br i1 %29, label %30, label %56

30:                                               ; preds = %25
  %31 = zext i32 %28 to i64
  br label %34

32:                                               ; preds = %56
  %33 = icmp sgt i32 %19, 0
  br i1 %33, label %59, label %67

34:                                               ; preds = %30, %54
  %35 = phi i64 [ 0, %30 ], [ %39, %54 ]
  %36 = getelementptr inbounds [100 x i32], [100 x i32]* %1, i64 0, i64 %35
  %37 = load i32, i32* %36, align 4, !tbaa !5
  %38 = icmp slt i32 %37, 60
  %39 = add nuw nsw i64 %35, 1
  %40 = getelementptr inbounds [100 x i32], [100 x i32]* %1, i64 0, i64 %39
  %41 = load i32, i32* %40, align 4, !tbaa !5
  %42 = icmp sgt i32 %41, 59
  br i1 %38, label %43, label %44

43:                                               ; preds = %34
  br i1 %42, label %47, label %54

44:                                               ; preds = %34
  %45 = icmp slt i32 %37, %41
  %46 = select i1 %42, i1 %45, i1 false
  br i1 %46, label %47, label %54

47:                                               ; preds = %44, %43
  %48 = getelementptr inbounds [100 x i32], [100 x i32]* %1, i64 0, i64 %39
  %49 = getelementptr inbounds [100 x [100 x i8]], [100 x [100 x i8]]* %3, i64 0, i64 %39, i64 0
  %50 = call i8* @strcpy(i8* noundef nonnull %23, i8* noundef nonnull %49) #5
  store i32 %37, i32* %48, align 4, !tbaa !5
  %51 = getelementptr inbounds [100 x [100 x i8]], [100 x [100 x i8]]* %3, i64 0, i64 %35, i64 0
  %52 = call i8* @strcpy(i8* noundef nonnull %49, i8* noundef nonnull %51) #5
  store i32 %41, i32* %36, align 4, !tbaa !5
  %53 = call i8* @strcpy(i8* noundef nonnull %51, i8* noundef nonnull %23) #5
  br label %54

54:                                               ; preds = %43, %44, %47
  %55 = icmp eq i64 %39, %31
  br i1 %55, label %56, label %34, !llvm.loop !11

56:                                               ; preds = %54, %25
  %57 = add nuw i32 %27, 1
  %58 = icmp eq i32 %27, %19
  br i1 %58, label %32, label %25, !llvm.loop !12

59:                                               ; preds = %32, %59
  %60 = phi i64 [ %63, %59 ], [ 0, %32 ]
  %61 = getelementptr inbounds [100 x [100 x i8]], [100 x [100 x i8]]* %3, i64 0, i64 %60, i64 0
  %62 = call i32 @puts(i8* nonnull %61)
  %63 = add nuw nsw i64 %60, 1
  %64 = load i32, i32* %2, align 4, !tbaa !5
  %65 = sext i32 %64 to i64
  %66 = icmp slt i64 %63, %65
  br i1 %66, label %59, label %67, !llvm.loop !13

67:                                               ; preds = %59, %22, %11, %32
  %68 = getelementptr inbounds [10 x i8], [10 x i8]* %4, i64 0, i64 0
  call void @llvm.lifetime.end.p0i8(i64 10, i8* nonnull %68) #5
  call void @llvm.lifetime.end.p0i8(i64 10000, i8* nonnull %7) #5
  call void @llvm.lifetime.end.p0i8(i64 4, i8* nonnull %6) #5
  call void @llvm.lifetime.end.p0i8(i64 400, i8* nonnull %5) #5
  ret i32 0
}

; Function Attrs: argmemonly mustprogress nofree nosync nounwind willreturn
declare void @llvm.lifetime.start.p0i8(i64 immarg, i8* nocapture) #1

; Function Attrs: nofree nounwind
declare noundef i32 @__isoc99_scanf(i8* nocapture noundef readonly, ...) local_unnamed_addr #2

; Function Attrs: argmemonly mustprogress nofree nounwind willreturn
declare i8* @strcpy(i8* noalias returned writeonly, i8* noalias nocapture readonly) local_unnamed_addr #3

; Function Attrs: argmemonly mustprogress nofree nosync nounwind willreturn
declare void @llvm.lifetime.end.p0i8(i64 immarg, i8* nocapture) #1

; Function Attrs: nofree nounwind
declare noundef i32 @puts(i8* nocapture noundef readonly) local_unnamed_addr #4


!llvm.module.flags = !{!0, !1, !2, !3}
!llvm.ident = !{!4}

!0 = !{i32 1, !"wchar_size", i32 4}
!1 = !{i32 7, !"PIC Level", i32 2}
!2 = !{i32 7, !"PIE Level", i32 2}
!3 = !{i32 7, !"uwtable", i32 1}
!4 = !{!"clang version 13.0.0"}
!5 = !{!6, !6, i64 0}
!6 = !{!"int", !7, i64 0}
!7 = !{!"omnipotent char", !8, i64 0}
!8 = !{!"Simple C/C++ TBAA"}
!9 = distinct !{!9, !10}
!10 = !{!"llvm.loop.mustprogress"}
!11 = distinct !{!11, !10}
!12 = distinct !{!12, !10}
!13 = distinct !{!13, !10}
